target datalayout = "e-m:e-p270:32:32-p271:32:32-p272:64:64-i64:64-i128:128-f80:128-n8:16:32:64-S128"
target triple = "x86_64-pc-linux-gnu"

@.str.1 = private unnamed_addr constant [52 x i8] c"negative values not allowed for submodule.fetchJobs\00", align 1

; Function Attrs: nounwind uwtable
define dso_local i32 @parse_submodule_fetchjobs(ptr noundef %0, ptr noundef %1, ptr noundef %2) #0 {
  %4 = alloca ptr, align 8
  %5 = alloca ptr, align 8
  %6 = alloca ptr, align 8
  %7 = alloca i32, align 4
  store ptr %0, ptr %4, align 8, !tbaa !13
  store ptr %1, ptr %5, align 8, !tbaa !13
  store ptr %2, ptr %6, align 8, !tbaa !21
  call void @llvm.lifetime.start.p0(i64 4, ptr %7) #9
  %8 = load ptr, ptr %4, align 8, !tbaa !13
  %9 = load ptr, ptr %5, align 8, !tbaa !13
  %10 = load ptr, ptr %6, align 8, !tbaa !21
  %11 = call i32 @git_config_int(ptr noundef %8, ptr noundef %9, ptr noundef %10)
  store i32 %11, ptr %7, align 4, !tbaa !17
  %12 = load i32, ptr %7, align 4, !tbaa !17
  %13 = icmp slt i32 %12, 0
  br i1 %13, label %14, label %16

14:                                               ; preds = %3
  %15 = call ptr @_(ptr noundef @.str.1)
  call void (ptr, ...) @die(ptr noundef %15) #11
  unreachable

16:                                               ; preds = %3
  %17 = load i32, ptr %7, align 4, !tbaa !17
  %18 = icmp ne i32 %17, 0
  br i1 %18, label %21, label %19

19:                                               ; preds = %16
  %20 = call i32 @online_cpus()
  store i32 %20, ptr %7, align 4, !tbaa !17
  br label %21

21:                                               ; preds = %19, %16
  %22 = load i32, ptr %7, align 4, !tbaa !17
  call void @llvm.lifetime.end.p0(i64 4, ptr %7) #9
  ret i32 %22
}