; Function Attrs: nounwind uwtable
define dso_local i32 @parse_submodule_fetchjobs(ptr noundef %0, ptr noundef %1, ptr noundef %2) local_unnamed_addr #0 {
  %4 = tail call i32 @git_config_int(ptr noundef %0, ptr noundef %1, ptr noundef %2) #15
  %5 = icmp slt i32 %4, 0
  br i1 %5, label %6, label %8

6:                                                ; preds = %3
  %7 = tail call fastcc ptr @_(ptr noundef nonnull @.str.1)
  tail call void (ptr, ...) @die(ptr noundef %7) #17
  unreachable

8:                                                ; preds = %3
  %.not = icmp eq i32 %4, 0
  br i1 %.not, label %9, label %11

9:                                                ; preds = %8
  %10 = tail call i32 @online_cpus() #15
  br label %11

11:                                               ; preds = %9, %8
  %.0 = phi i32 [ %4, %8 ], [ %10, %9 ]
  ret i32 %.0
}